target datalayout = "e-m:e-p270:32:32-p271:32:32-p272:64:64-i64:64-i128:128-f80:128-n8:16:32:64-S128"
target triple = "x86_64-pc-linux-gnu"

%struct.reassembly_table = type { ptr, ptr, ptr, ptr, ptr }
%struct.reassembly_table_functions = type { ptr, ptr, ptr, ptr, ptr, ptr }

@.str.156 = private unnamed_addr constant [46 x i8] c"WiMax Generic/Type1/Type2 MAC Header Messages\00", align 1
@.str.157 = private unnamed_addr constant [43 x i8] c"WiMax Generic/Type1/Type2 MAC Header (hdr)\00", align 1
@.str.158 = private unnamed_addr constant [8 x i8] c"wmx.hdr\00", align 1
@proto_mac_header_generic_decoder = hidden global i32 0, align 4
@.str.159 = private unnamed_addr constant [27 x i8] c"mac_header_generic_handler\00", align 1
@payload_reassembly_table = internal global %struct.reassembly_table zeroinitializer, align 8
@addresses_reassembly_table_functions = external constant %struct.reassembly_table_functions, align 8

; Function Attrs: null_pointer_is_valid sspstrong uwtable
define hidden void @wimax_proto_register_mac_header_generic() #0 {
  %1 = alloca ptr, align 8
  call void @llvm.lifetime.start.p0(i64 8, ptr %1) #8
  %2 = call i32 @proto_register_protocol(ptr noundef @.str.156, ptr noundef @.str.157, ptr noundef @.str.158)
  store i32 %2, ptr @proto_mac_header_generic_decoder, align 4
  %3 = load i32, ptr @proto_mac_header_generic_decoder, align 4
  call void @proto_register_field_array(i32 noundef %3, ptr noundef @wimax_proto_register_mac_header_generic.hf, i32 noundef 18)
  %4 = load i32, ptr @proto_mac_header_generic_decoder, align 4
  call void @proto_register_field_array(i32 noundef %4, ptr noundef @wimax_proto_register_mac_header_generic.hf_ext, i32 noundef 25)
  %5 = load i32, ptr @proto_mac_header_generic_decoder, align 4
  call void @proto_register_field_array(i32 noundef %5, ptr noundef @wimax_proto_register_mac_header_generic.hf_mesh, i32 noundef 1)
  %6 = load i32, ptr @proto_mac_header_generic_decoder, align 4
  call void @proto_register_field_array(i32 noundef %6, ptr noundef @wimax_proto_register_mac_header_generic.hf_frag, i32 noundef 7)
  %7 = load i32, ptr @proto_mac_header_generic_decoder, align 4
  call void @proto_register_field_array(i32 noundef %7, ptr noundef @wimax_proto_register_mac_header_generic.hf_pack, i32 noundef 7)
  %8 = load i32, ptr @proto_mac_header_generic_decoder, align 4
  call void @proto_register_field_array(i32 noundef %8, ptr noundef @wimax_proto_register_mac_header_generic.hf_fast, i32 noundef 2)
  %9 = load i32, ptr @proto_mac_header_generic_decoder, align 4
  call void @proto_register_field_array(i32 noundef %9, ptr noundef @wimax_proto_register_mac_header_generic.hf_grant, i32 noundef 12)
  %10 = load i32, ptr @proto_mac_header_generic_decoder, align 4
  call void @proto_register_field_array(i32 noundef %10, ptr noundef @wimax_proto_register_mac_header_generic.hf_arq, i32 noundef 17)
  call void @proto_register_subtree_array(ptr noundef @wimax_proto_register_mac_header_generic.ett, i32 noundef 11)
  %11 = load i32, ptr @proto_mac_header_generic_decoder, align 4
  %12 = call ptr @expert_register_protocol(i32 noundef %11)
  store ptr %12, ptr %1, align 8
  %13 = load ptr, ptr %1, align 8
  call void @expert_register_field_array(ptr noundef %13, ptr noundef @wimax_proto_register_mac_header_generic.ei, i32 noundef 3)
  %14 = load i32, ptr @proto_mac_header_generic_decoder, align 4
  %15 = call ptr @register_dissector(ptr noundef @.str.159, ptr noundef @dissect_mac_header_generic_decoder, i32 noundef %14)
  call void @register_init_routine(ptr noundef @wimax_defragment_init)
  call void @register_cleanup_routine(ptr noundef @wimax_defragment_cleanup)
  call void @reassembly_table_register(ptr noundef @payload_reassembly_table, ptr noundef @addresses_reassembly_table_functions)
  call void @llvm.lifetime.end.p0(i64 8, ptr %1) #8
  ret void
}