; Function Attrs: null_pointer_is_valid sspstrong uwtable
define hidden void @wimax_proto_register_mac_header_generic() local_unnamed_addr #0 {
  %1 = tail call i32 @proto_register_protocol(ptr noundef nonnull @.str.156, ptr noundef nonnull @.str.157, ptr noundef nonnull @.str.158)
  store i32 %1, ptr @proto_mac_header_generic_decoder, align 4
  tail call void @proto_register_field_array(i32 noundef %1, ptr noundef nonnull @wimax_proto_register_mac_header_generic.hf, i32 noundef 18)
  %2 = load i32, ptr @proto_mac_header_generic_decoder, align 4
  tail call void @proto_register_field_array(i32 noundef %2, ptr noundef nonnull @wimax_proto_register_mac_header_generic.hf_ext, i32 noundef 25)
  %3 = load i32, ptr @proto_mac_header_generic_decoder, align 4
  tail call void @proto_register_field_array(i32 noundef %3, ptr noundef nonnull @wimax_proto_register_mac_header_generic.hf_mesh, i32 noundef 1)
  %4 = load i32, ptr @proto_mac_header_generic_decoder, align 4
  tail call void @proto_register_field_array(i32 noundef %4, ptr noundef nonnull @wimax_proto_register_mac_header_generic.hf_frag, i32 noundef 7)
  %5 = load i32, ptr @proto_mac_header_generic_decoder, align 4
  tail call void @proto_register_field_array(i32 noundef %5, ptr noundef nonnull @wimax_proto_register_mac_header_generic.hf_pack, i32 noundef 7)
  %6 = load i32, ptr @proto_mac_header_generic_decoder, align 4
  tail call void @proto_register_field_array(i32 noundef %6, ptr noundef nonnull @wimax_proto_register_mac_header_generic.hf_fast, i32 noundef 2)
  %7 = load i32, ptr @proto_mac_header_generic_decoder, align 4
  tail call void @proto_register_field_array(i32 noundef %7, ptr noundef nonnull @wimax_proto_register_mac_header_generic.hf_grant, i32 noundef 12)
  %8 = load i32, ptr @proto_mac_header_generic_decoder, align 4
  tail call void @proto_register_field_array(i32 noundef %8, ptr noundef nonnull @wimax_proto_register_mac_header_generic.hf_arq, i32 noundef 17)
  tail call void @proto_register_subtree_array(ptr noundef nonnull @wimax_proto_register_mac_header_generic.ett, i32 noundef 11)
  %9 = load i32, ptr @proto_mac_header_generic_decoder, align 4
  %10 = tail call ptr @expert_register_protocol(i32 noundef %9)
  tail call void @expert_register_field_array(ptr noundef %10, ptr noundef nonnull @wimax_proto_register_mac_header_generic.ei, i32 noundef 3)
  %11 = load i32, ptr @proto_mac_header_generic_decoder, align 4
  %12 = tail call ptr @register_dissector(ptr noundef nonnull @.str.159, ptr noundef nonnull @dissect_mac_header_generic_decoder, i32 noundef %11)
  tail call void @register_init_routine(ptr noundef nonnull @wimax_defragment_init)
  tail call void @register_cleanup_routine(ptr noundef nonnull @wimax_defragment_cleanup)
  tail call void @reassembly_table_register(ptr noundef nonnull @payload_reassembly_table, ptr noundef nonnull @addresses_reassembly_table_functions)
  ret void
}